target datalayout = "e-m:e-p270:32:32-p271:32:32-p272:64:64-i64:64-i128:128-f80:128-n8:16:32:64-S128"
target triple = "x86_64-unknown-linux-gnu"

@_ZTIN3smt16cancel_exceptionE = linkonce_odr hidden constant { ptr, ptr } { ptr getelementptr inbounds (ptr, ptr @_ZTVN10__cxxabiv117__class_type_infoE, i64 2), ptr @_ZTSN3smt16cancel_exceptionE }, comdat, align 8

; Function Attrs: mustprogress uwtable
define hidden void @_ZN3smt7context16internalize_deepEP4expr(ptr noundef nonnull align 8 dereferenceable(11616) %this, ptr noundef %n) #5 align 2 {
entry:
  %this.addr = alloca ptr, align 8
  %n.addr = alloca ptr, align 8
  %v = alloca [1 x ptr], align 8
  store ptr %this, ptr %this.addr, align 8
  store ptr %n, ptr %n.addr, align 8
  %this1 = load ptr, ptr %this.addr, align 8
  %arrayinit.begin = getelementptr inbounds [1 x ptr], ptr %v, i64 0, i64 0
  %0 = load ptr, ptr %n.addr, align 8
  store ptr %0, ptr %arrayinit.begin, align 8
  %arraydecay = getelementptr inbounds [1 x ptr], ptr %v, i64 0, i64 0
  call void @_ZN3smt7context16internalize_deepEPKP4exprj(ptr noundef nonnull align 8 dereferenceable(11616) %this1, ptr noundef %arraydecay, i32 noundef 1)
  ret void
}

; Function Attrs: mustprogress uwtable
define hidden void @_ZN3smt7context11internalizeEP4exprb(ptr noundef nonnull align 8 dereferenceable(11616) %this, ptr noundef %n, i1 noundef zeroext %gate_ctx) #5 align 2 {
entry:
  %this.addr = alloca ptr, align 8
  %n.addr = alloca ptr, align 8
  %gate_ctx.addr = alloca i8, align 1
  store ptr %this, ptr %this.addr, align 8
  store ptr %n, ptr %n.addr, align 8
  %frombool = zext i1 %gate_ctx to i8
  store i8 %frombool, ptr %gate_ctx.addr, align 1
  %this1 = load ptr, ptr %this.addr, align 8
  %call = call noundef zeroext i1 @_ZN6memory20above_high_watermarkEv()
  br i1 %call, label %if.then, label %if.end

if.then:                                          ; preds = %entry
  %exception = call ptr @__cxa_allocate_exception(i64 1) #3
  call void @__cxa_throw(ptr %exception, ptr @_ZTIN3smt16cancel_exceptionE, ptr null) #16
  unreachable

if.end:                                           ; preds = %entry
  %0 = load ptr, ptr %n.addr, align 8
  call void @_ZN3smt7context16internalize_deepEP4expr(ptr noundef nonnull align 8 dereferenceable(11616) %this1, ptr noundef %0)
  %1 = load ptr, ptr %n.addr, align 8
  %2 = load i8, ptr %gate_ctx.addr, align 1
  %tobool = trunc i8 %2 to i1
  call void @_ZN3smt7context15internalize_recEP4exprb(ptr noundef nonnull align 8 dereferenceable(11616) %this1, ptr noundef %1, i1 noundef zeroext %tobool)
  ret void
}