; Function Attrs: mustprogress uwtable
define hidden void @_ZN3smt7context11internalizeEP4exprb(ptr noundef nonnull align 8 dereferenceable(11616) %this, ptr noundef %n, i1 noundef zeroext %gate_ctx) local_unnamed_addr #3 align 2 {
entry:
  %v.i = alloca [1 x ptr], align 8
  %call = tail call noundef zeroext i1 @_ZN6memory20above_high_watermarkEv()
  br i1 %call, label %if.then, label %if.end

if.then:                                          ; preds = %entry
  %exception = tail call ptr @__cxa_allocate_exception(i64 1) #21
  tail call void @__cxa_throw(ptr %exception, ptr nonnull @_ZTIN3smt16cancel_exceptionE, ptr null) #22
  unreachable

if.end:                                           ; preds = %entry
  call void @llvm.lifetime.start.p0(i64 8, ptr nonnull %v.i)
  store ptr %n, ptr %v.i, align 8
  call void @_ZN3smt7context16internalize_deepEPKP4exprj(ptr noundef nonnull align 8 dereferenceable(11616) %this, ptr noundef nonnull %v.i, i32 noundef 1)
  call void @llvm.lifetime.end.p0(i64 8, ptr nonnull %v.i)
  call void @_ZN3smt7context15internalize_recEP4exprb(ptr noundef nonnull align 8 dereferenceable(11616) %this, ptr noundef %n, i1 noundef zeroext %gate_ctx)
  ret void
}